ccollections
defaultdict
p0
(c__builtin__
list
p1
tp2
Rp3
I100000
(lp4
I0
aI9411
aI12543
aI16896
aI18637
asI1
(lp5
I0
aI0
aI0
aI0
aI0
asI100
(lp6
I0
aI7
aI8
aI10
aI15
asI1000
(lp7
I0
aI108
aI139
aI190
aI255
asI10
(lp8
I0
aI1
aI1
aI1
aI1
asI100000000
(lp9
I0
asI10000
(lp10
I0
aI865
aI1151
aI1684
aI2460
asI1000000
(lp11
I0
aI128450
aI205460
aI311539
aI451270
asI10000000
(lp12
I0
aI977858
aI1752630
aI2803901
aI4137742
as.