ccollections
defaultdict
p0
(c__builtin__
list
p1
tp2
Rp3
I100000
(lp4
I227808
aI286416
aI309392
aI338352
aI347248
asI1
(lp5
I213504
aI213520
aI213520
aI213520
aI213520
asI100
(lp6
I213520
aI213568
aI213648
aI213808
aI214112
asI1000
(lp7
I213664
aI214448
aI214560
aI214848
aI215200
asI10
(lp8
I213536
aI213536
aI213520
aI213568
aI213536
asI100000000
(lp9
I14308800
asI10000
(lp10
I215040
aI220240
aI222272
aI225536
aI229648
asI1000000
(lp11
I356176
aI1183216
aI1720864
aI2363904
aI3087616
asI10000000
(lp12
I1636992
aI8007504
aI13449968
aI20042352
aI27220368
as.