ccollections
defaultdict
p0
(c__builtin__
list
p1
tp2
Rp3
I0
(lp4
I213504
aI213536
aI213520
aI213664
aI215040
aI227808
aI356176
aI1636992
aI14308800
asI1
(lp5
I213520
aI213536
aI213568
aI214448
aI220240
aI286416
aI1183216
aI8007504
asI2
(lp6
I213520
aI213520
aI213648
aI214560
aI222272
aI309392
aI1720864
aI13449968
asI4
(lp7
I213520
aI213568
aI213808
aI214848
aI225536
aI338352
aI2363904
aI20042352
asI8
(lp8
I213520
aI213536
aI214112
aI215200
aI229648
aI347248
aI3087616
aI27220368
as.