ccollections
defaultdict
p0
(c__builtin__
list
p1
tp2
Rp3
I0
(lp4
I0
aI0
aI0
aI0
aI0
aI0
aI0
aI0
aI0
asI1
(lp5
I0
aI1
aI7
aI108
aI865
aI9411
aI128450
aI977858
asI2
(lp6
I0
aI1
aI8
aI139
aI1151
aI12543
aI205460
aI1752630
asI4
(lp7
I0
aI1
aI10
aI190
aI1684
aI16896
aI311539
aI2803901
asI8
(lp8
I0
aI1
aI15
aI255
aI2460
aI18637
aI451270
aI4137742
as.